; Function Attrs: mustprogress uwtable
define noundef zeroext i1 @pkpy_rot_two(ptr noundef %0) local_unnamed_addr #4 personality ptr @__gxx_personality_v0 {
  %2 = alloca i32, align 4
  %3 = alloca %"struct.pkpy::Str", align 8
  %4 = alloca i32, align 4
  %5 = getelementptr inbounds nuw i8, ptr %0, i64 264488
  %6 = load ptr, ptr %5, align 8
  %.not = icmp eq ptr %6, null
  br i1 %.not, label %7, label %24

7:                                                ; preds = %1
  %8 = tail call fastcc noundef i32 @_ZL20count_extra_elementsPN4pkpy2VMEi(ptr noundef nonnull %0)
  store i32 %8, ptr %2, align 4
  %9 = icmp slt i32 %8, 2
  br i1 %9, label %10, label %17

10:                                               ; preds = %7
  store i32 2, ptr %4, align 4
  call void @_ZN4pkpy2_SIJRA19_KciRA16_S1_RiEEENS_3StrEDpOT_(ptr dead_on_unwind nonnull writable sret(%"struct.pkpy::Str") align 8 %3, ptr noundef nonnull align 1 dereferenceable(19) @.str.2, ptr noundef nonnull align 4 dereferenceable(4) %4, ptr noundef nonnull align 1 dereferenceable(16) @.str.3, ptr noundef nonnull align 4 dereferenceable(4) %2)
  %11 = getelementptr inbounds nuw i8, ptr %3, i64 8
  %12 = load ptr, ptr %11, align 8
  %13 = invoke zeroext i1 @pkpy_error(ptr noundef nonnull %0, ptr noundef nonnull @.str.4, ptr noundef %12)
          to label %14 unwind label %15

14:                                               ; preds = %10
  call void @_ZN4pkpy3StrD1Ev(ptr noundef nonnull align 8 dereferenceable(32) %3) #32
  br label %24

15:                                               ; preds = %10
  %16 = landingpad { ptr, i32 }
          cleanup
  call void @_ZN4pkpy3StrD1Ev(ptr noundef nonnull align 8 dereferenceable(32) %3) #32
  resume { ptr, i32 } %16

17:                                               ; preds = %7
  %18 = getelementptr inbounds nuw i8, ptr %0, i64 264296
  %19 = load ptr, ptr %18, align 8
  %20 = getelementptr inbounds i8, ptr %19, i64 -8
  %21 = getelementptr inbounds i8, ptr %19, i64 -16
  %22 = load ptr, ptr %20, align 8
  %23 = load ptr, ptr %21, align 8
  store ptr %23, ptr %20, align 8
  store ptr %22, ptr %21, align 8
  br label %24

24:                                               ; preds = %1, %17, %14
  %.0 = phi i1 [ false, %14 ], [ true, %17 ], [ false, %1 ]
  ret i1 %.0
}